target datalayout = "e-m:e-p270:32:32-p271:32:32-p272:64:64-i64:64-i128:128-f80:128-n8:16:32:64-S128"
target triple = "x86_64-pc-linux-gnu"

%struct.trig_mgr_info = type { i32, i16, i32, i16, ptr, ptr, i32, i32, i64, i32, i32, ptr, i8, ptr, ptr, i64 }

; Function Attrs: nounwind uwtable
define internal void @_trig_del(ptr noundef %0) #0 {
  %2 = alloca ptr, align 8
  %3 = alloca ptr, align 8
  store ptr %0, ptr %2, align 8
  call void @llvm.lifetime.start.p0(i64 8, ptr %3) #10
  %4 = load ptr, ptr %2, align 8
  store ptr %4, ptr %3, align 8
  %5 = load ptr, ptr %3, align 8
  %6 = getelementptr inbounds nuw %struct.trig_mgr_info, ptr %5, i32 0, i32 4
  call void @slurm_xfree(ptr noundef %6)
  %7 = load ptr, ptr %3, align 8
  %8 = getelementptr inbounds nuw %struct.trig_mgr_info, ptr %7, i32 0, i32 14
  call void @slurm_xfree(ptr noundef %8)
  %9 = load ptr, ptr %3, align 8
  %10 = getelementptr inbounds nuw %struct.trig_mgr_info, ptr %9, i32 0, i32 11
  call void @slurm_xfree(ptr noundef %10)
  br label %11

11:                                               ; preds = %1
  %12 = load ptr, ptr %3, align 8
  %13 = getelementptr inbounds nuw %struct.trig_mgr_info, ptr %12, i32 0, i32 5
  %14 = load ptr, ptr %13, align 8
  %15 = icmp ne ptr %14, null
  br i1 %15, label %16, label %19

16:                                               ; preds = %11
  %17 = load ptr, ptr %3, align 8
  %18 = getelementptr inbounds nuw %struct.trig_mgr_info, ptr %17, i32 0, i32 5
  call void @slurm_bit_free(ptr noundef %18)
  br label %19

19:                                               ; preds = %16, %11
  %20 = load ptr, ptr %3, align 8
  %21 = getelementptr inbounds nuw %struct.trig_mgr_info, ptr %20, i32 0, i32 5
  store ptr null, ptr %21, align 8
  br label %22

22:                                               ; preds = %19
  br label %23

23:                                               ; preds = %22
  br label %24

24:                                               ; preds = %23
  %25 = load ptr, ptr %3, align 8
  %26 = getelementptr inbounds nuw %struct.trig_mgr_info, ptr %25, i32 0, i32 13
  %27 = load ptr, ptr %26, align 8
  %28 = icmp ne ptr %27, null
  br i1 %28, label %29, label %32

29:                                               ; preds = %24
  %30 = load ptr, ptr %3, align 8
  %31 = getelementptr inbounds nuw %struct.trig_mgr_info, ptr %30, i32 0, i32 13
  call void @slurm_bit_free(ptr noundef %31)
  br label %32

32:                                               ; preds = %29, %24
  %33 = load ptr, ptr %3, align 8
  %34 = getelementptr inbounds nuw %struct.trig_mgr_info, ptr %33, i32 0, i32 13
  store ptr null, ptr %34, align 8
  br label %35

35:                                               ; preds = %32
  br label %36

36:                                               ; preds = %35
  call void @slurm_xfree(ptr noundef %3)
  call void @llvm.lifetime.end.p0(i64 8, ptr %3) #10
  ret void
}