; Function Attrs: nounwind uwtable
define internal void @_trig_del(ptr noundef %0) #0 {
  %2 = alloca ptr, align 8
  call void @llvm.lifetime.start.p0(i64 8, ptr nonnull %2) #12
  store ptr %0, ptr %2, align 8
  %3 = getelementptr inbounds nuw i8, ptr %0, i64 16
  tail call void @slurm_xfree(ptr noundef nonnull %3) #12
  %4 = getelementptr inbounds nuw i8, ptr %0, i64 80
  tail call void @slurm_xfree(ptr noundef nonnull %4) #12
  %5 = getelementptr inbounds nuw i8, ptr %0, i64 56
  tail call void @slurm_xfree(ptr noundef nonnull %5) #12
  %6 = getelementptr inbounds nuw i8, ptr %0, i64 24
  %7 = load ptr, ptr %6, align 8
  %.not = icmp eq ptr %7, null
  br i1 %.not, label %9, label %8

8:                                                ; preds = %1
  tail call void @slurm_bit_free(ptr noundef nonnull %6) #12
  br label %9

9:                                                ; preds = %8, %1
  store ptr null, ptr %6, align 8
  %10 = getelementptr inbounds nuw i8, ptr %0, i64 72
  %11 = load ptr, ptr %10, align 8
  %.not1 = icmp eq ptr %11, null
  br i1 %.not1, label %13, label %12

12:                                               ; preds = %9
  tail call void @slurm_bit_free(ptr noundef nonnull %10) #12
  br label %13

13:                                               ; preds = %12, %9
  store ptr null, ptr %10, align 8
  call void @slurm_xfree(ptr noundef nonnull %2) #12
  call void @llvm.lifetime.end.p0(i64 8, ptr nonnull %2) #12
  ret void
}